; Function Attrs: nounwind uwtable
define internal ptr @binascii_hexlify(ptr readnone captures(none) %0, ptr noundef %1, i64 noundef %2, ptr noundef %3) #0 {
  %5 = alloca [3 x ptr], align 16
  %6 = alloca %struct.Py_buffer, align 8
  call void @llvm.lifetime.start.p0(i64 24, ptr nonnull %5) #5
  %.not = icmp eq ptr %3, null
  br i1 %.not, label %9, label %7

7:                                                ; preds = %4
  %8 = getelementptr i8, ptr %3, i64 16
  %.val = load i64, ptr %8, align 8, !tbaa !22
  br label %9

9:                                                ; preds = %4, %7
  %10 = phi i64 [ %.val, %7 ], [ 0, %4 ]
  %11 = add i64 %10, %2
  call void @llvm.lifetime.start.p0(i64 80, ptr nonnull %6) #5
  call void @llvm.memset.p0.i64(ptr noundef nonnull align 8 dereferenceable(80) %6, i8 0, i64 80, i1 false)
  %12 = add i64 %2, -1
  %13 = icmp ult i64 %12, 3
  %14 = icmp ne ptr %1, null
  %15 = and i1 %14, %13
  %or.cond5 = and i1 %.not, %15
  br i1 %or.cond5, label %.thread, label %16

16:                                               ; preds = %9
  %17 = call ptr @_PyArg_UnpackKeywords(ptr noundef %1, i64 noundef %2, ptr noundef null, ptr noundef %3, ptr noundef nonnull @binascii_hexlify._parser, i32 noundef 1, i32 noundef 3, i32 noundef 0, i32 noundef 0, ptr noundef nonnull %5) #5
  %.not36 = icmp eq ptr %17, null
  br i1 %.not36, label %35, label %.thread

.thread:                                          ; preds = %9, %16
  %18 = phi ptr [ %17, %16 ], [ %1, %9 ]
  %19 = load ptr, ptr %18, align 8, !tbaa !10
  %20 = call i32 @PyObject_GetBuffer(ptr noundef %19, ptr noundef nonnull %6, i32 noundef 0) #5
  %.not37 = icmp eq i32 %20, 0
  br i1 %.not37, label %21, label %35

21:                                               ; preds = %.thread
  %.not38 = icmp eq i64 %11, 1
  br i1 %.not38, label %32, label %22

22:                                               ; preds = %21
  %23 = getelementptr i8, ptr %18, i64 8
  %24 = load ptr, ptr %23, align 8, !tbaa !10
  %.not39 = icmp ne ptr %24, null
  %.not40 = icmp eq i64 %11, 2
  %or.cond = select i1 %.not39, i1 %.not40, i1 false
  br i1 %or.cond, label %32, label %25

25:                                               ; preds = %22
  %26 = getelementptr i8, ptr %18, i64 16
  %27 = load ptr, ptr %26, align 8, !tbaa !10
  %28 = call i32 @PyLong_AsInt(ptr noundef %27) #5
  %29 = icmp eq i32 %28, -1
  br i1 %29, label %30, label %32

30:                                               ; preds = %25
  %31 = call ptr @PyErr_Occurred() #5
  %.not41 = icmp eq ptr %31, null
  br i1 %.not41, label %32, label %35

32:                                               ; preds = %22, %25, %30, %21
  %.027 = phi ptr [ %24, %30 ], [ %24, %25 ], [ null, %21 ], [ %24, %22 ]
  %.0 = phi i32 [ -1, %30 ], [ %28, %25 ], [ 1, %21 ], [ 1, %22 ]
  %.val43 = load ptr, ptr %6, align 8, !tbaa !12
  %33 = getelementptr inbounds nuw i8, ptr %6, i64 16
  %.val44 = load i64, ptr %33, align 8, !tbaa !18
  %34 = call ptr @_Py_strhex_bytes_with_sep(ptr noundef %.val43, i64 noundef %.val44, ptr noundef %.027, i32 noundef %.0) #5
  br label %35

35:                                               ; preds = %30, %.thread, %16, %32
  %.028 = phi ptr [ null, %.thread ], [ null, %30 ], [ %34, %32 ], [ null, %16 ]
  %36 = getelementptr inbounds nuw i8, ptr %6, i64 8
  %37 = load ptr, ptr %36, align 8, !tbaa !21
  %.not42 = icmp eq ptr %37, null
  br i1 %.not42, label %39, label %38

38:                                               ; preds = %35
  call void @PyBuffer_Release(ptr noundef nonnull %6) #5
  br label %39

39:                                               ; preds = %38, %35
  call void @llvm.lifetime.end.p0(i64 80, ptr nonnull %6) #5
  call void @llvm.lifetime.end.p0(i64 24, ptr nonnull %5) #5
  ret ptr %.028
}